target datalayout = "e-m:e-p270:32:32-p271:32:32-p272:64:64-i64:64-i128:128-f80:128-n8:16:32:64-S128"
target triple = "x86_64-pc-linux-gnu"

%struct.AVRational = type { i32, i32 }
%struct.AVChannelLayout = type { i32, i32, %union.anon.1, ptr }
%union.anon.1 = type { i64 }
%struct.AVFrame = type { [8 x ptr], [8 x i32], ptr, i32, i32, i32, i32, i32, %struct.AVRational, i64, i64, %struct.AVRational, i32, ptr, i32, i32, [8 x ptr], ptr, i32, ptr, i32, i32, i32, i32, i32, i32, i32, i64, ptr, i32, ptr, ptr, i64, i64, i64, i64, ptr, %struct.AVChannelLayout, i64 }

; Function Attrs: nounwind uwtable
define internal void @allyuv_fill_picture(ptr noundef %0, ptr noundef %1) #1 {
  %3 = alloca ptr, align 8
  %4 = alloca ptr, align 8
  %5 = alloca i64, align 8
  %6 = alloca i64, align 8
  %7 = alloca i64, align 8
  %8 = alloca i32, align 4
  %9 = alloca i32, align 4
  %10 = alloca i32, align 4
  store ptr %0, ptr %3, align 8, !tbaa !4
  store ptr %1, ptr %4, align 8, !tbaa !55
  call void @llvm.lifetime.start.p0(i64 8, ptr %5) #15
  %11 = load ptr, ptr %4, align 8, !tbaa !55
  %12 = getelementptr inbounds nuw %struct.AVFrame, ptr %11, i32 0, i32 1
  %13 = getelementptr inbounds [8 x i32], ptr %12, i64 0, i64 0
  %14 = load i32, ptr %13, align 8, !tbaa !36
  %15 = sext i32 %14 to i64
  store i64 %15, ptr %5, align 8, !tbaa !85
  call void @llvm.lifetime.start.p0(i64 8, ptr %6) #15
  %16 = load ptr, ptr %4, align 8, !tbaa !55
  %17 = getelementptr inbounds nuw %struct.AVFrame, ptr %16, i32 0, i32 1
  %18 = getelementptr inbounds [8 x i32], ptr %17, i64 0, i64 1
  %19 = load i32, ptr %18, align 4, !tbaa !36
  %20 = sext i32 %19 to i64
  store i64 %20, ptr %6, align 8, !tbaa !85
  call void @llvm.lifetime.start.p0(i64 8, ptr %7) #15
  %21 = load ptr, ptr %4, align 8, !tbaa !55
  %22 = getelementptr inbounds nuw %struct.AVFrame, ptr %21, i32 0, i32 1
  %23 = getelementptr inbounds [8 x i32], ptr %22, i64 0, i64 2
  %24 = load i32, ptr %23, align 8, !tbaa !36
  %25 = sext i32 %24 to i64
  store i64 %25, ptr %7, align 8, !tbaa !85
  call void @llvm.lifetime.start.p0(i64 4, ptr %8) #15
  call void @llvm.lifetime.start.p0(i64 4, ptr %9) #15
  call void @llvm.lifetime.start.p0(i64 4, ptr %10) #15
  store i32 0, ptr %9, align 4, !tbaa !36
  br label %26

26:                                               ; preds = %157, %2
  %27 = load i32, ptr %9, align 4, !tbaa !36
  %28 = icmp slt i32 %27, 4096
  br i1 %28, label %29, label %160

29:                                               ; preds = %26
  store i32 0, ptr %8, align 4, !tbaa !36
  br label %30

30:                                               ; preds = %67, %29
  %31 = load i32, ptr %8, align 4, !tbaa !36
  %32 = icmp slt i32 %31, 2048
  br i1 %32, label %33, label %70

33:                                               ; preds = %30
  %34 = load i32, ptr %8, align 4, !tbaa !36
  %35 = sdiv i32 %34, 8
  %36 = srem i32 %35, 256
  %37 = trunc i32 %36 to i8
  %38 = load ptr, ptr %4, align 8, !tbaa !55
  %39 = getelementptr inbounds nuw %struct.AVFrame, ptr %38, i32 0, i32 0
  %40 = getelementptr inbounds [8 x ptr], ptr %39, i64 0, i64 0
  %41 = load ptr, ptr %40, align 8, !tbaa !35
  %42 = load i32, ptr %9, align 4, !tbaa !36
  %43 = sext i32 %42 to i64
  %44 = load i64, ptr %5, align 8, !tbaa !85
  %45 = mul nsw i64 %43, %44
  %46 = load i32, ptr %8, align 4, !tbaa !36
  %47 = sext i32 %46 to i64
  %48 = add nsw i64 %45, %47
  %49 = getelementptr inbounds i8, ptr %41, i64 %48
  store i8 %37, ptr %49, align 1, !tbaa !97
  %50 = load i32, ptr %8, align 4, !tbaa !36
  %51 = sdiv i32 %50, 8
  %52 = srem i32 %51, 256
  %53 = trunc i32 %52 to i8
  %54 = load ptr, ptr %4, align 8, !tbaa !55
  %55 = getelementptr inbounds nuw %struct.AVFrame, ptr %54, i32 0, i32 0
  %56 = getelementptr inbounds [8 x ptr], ptr %55, i64 0, i64 0
  %57 = load ptr, ptr %56, align 8, !tbaa !35
  %58 = load i32, ptr %9, align 4, !tbaa !36
  %59 = sext i32 %58 to i64
  %60 = load i64, ptr %5, align 8, !tbaa !85
  %61 = mul nsw i64 %59, %60
  %62 = add nsw i64 %61, 4095
  %63 = load i32, ptr %8, align 4, !tbaa !36
  %64 = sext i32 %63 to i64
  %65 = sub nsw i64 %62, %64
  %66 = getelementptr inbounds i8, ptr %57, i64 %65
  store i8 %53, ptr %66, align 1, !tbaa !97
  br label %67

67:                                               ; preds = %33
  %68 = load i32, ptr %8, align 4, !tbaa !36
  %69 = add nsw i32 %68, 1
  store i32 %69, ptr %8, align 4, !tbaa !36
  br label %30, !llvm.loop !156

70:                                               ; preds = %30
  store i32 0, ptr %8, align 4, !tbaa !36
  br label %71

71:                                               ; preds = %129, %70
  %72 = load i32, ptr %8, align 4, !tbaa !36
  %73 = icmp slt i32 %72, 2048
  br i1 %73, label %74, label %132

74:                                               ; preds = %71
  store i32 0, ptr %10, align 4, !tbaa !36
  br label %75

75:                                               ; preds = %125, %74
  %76 = load i32, ptr %10, align 4, !tbaa !36
  %77 = icmp slt i32 %76, 8
  br i1 %77, label %78, label %128

78:                                               ; preds = %75
  %79 = load i32, ptr %9, align 4, !tbaa !36
  %80 = srem i32 %79, 16
  %81 = load i32, ptr %10, align 4, !tbaa !36
  %82 = srem i32 %81, 8
  %83 = mul nsw i32 %82, 16
  %84 = add nsw i32 %80, %83
  %85 = trunc i32 %84 to i8
  %86 = load ptr, ptr %4, align 8, !tbaa !55
  %87 = getelementptr inbounds nuw %struct.AVFrame, ptr %86, i32 0, i32 0
  %88 = getelementptr inbounds [8 x ptr], ptr %87, i64 0, i64 1
  %89 = load ptr, ptr %88, align 8, !tbaa !35
  %90 = load i64, ptr %7, align 8, !tbaa !85
  %91 = load i32, ptr %9, align 4, !tbaa !36
  %92 = sext i32 %91 to i64
  %93 = mul nsw i64 %90, %92
  %94 = load i32, ptr %8, align 4, !tbaa !36
  %95 = sext i32 %94 to i64
  %96 = add nsw i64 %93, %95
  %97 = load i32, ptr %10, align 4, !tbaa !36
  %98 = sext i32 %97 to i64
  %99 = add nsw i64 %96, %98
  %100 = getelementptr inbounds i8, ptr %89, i64 %99
  store i8 %85, ptr %100, align 1, !tbaa !97
  %101 = load i32, ptr %9, align 4, !tbaa !36
  %102 = srem i32 %101, 16
  %103 = add nsw i32 128, %102
  %104 = load i32, ptr %10, align 4, !tbaa !36
  %105 = srem i32 %104, 8
  %106 = mul nsw i32 %105, 16
  %107 = add nsw i32 %103, %106
  %108 = trunc i32 %107 to i8
  %109 = load ptr, ptr %4, align 8, !tbaa !55
  %110 = getelementptr inbounds nuw %struct.AVFrame, ptr %109, i32 0, i32 0
  %111 = getelementptr inbounds [8 x ptr], ptr %110, i64 0, i64 1
  %112 = load ptr, ptr %111, align 8, !tbaa !35
  %113 = load i64, ptr %7, align 8, !tbaa !85
  %114 = load i32, ptr %9, align 4, !tbaa !36
  %115 = sext i32 %114 to i64
  %116 = mul nsw i64 %113, %115
  %117 = add nsw i64 %116, 4095
  %118 = load i32, ptr %8, align 4, !tbaa !36
  %119 = sext i32 %118 to i64
  %120 = sub nsw i64 %117, %119
  %121 = load i32, ptr %10, align 4, !tbaa !36
  %122 = sext i32 %121 to i64
  %123 = sub nsw i64 %120, %122
  %124 = getelementptr inbounds i8, ptr %112, i64 %123
  store i8 %108, ptr %124, align 1, !tbaa !97
  br label %125

125:                                              ; preds = %78
  %126 = load i32, ptr %10, align 4, !tbaa !36
  %127 = add nsw i32 %126, 1
  store i32 %127, ptr %10, align 4, !tbaa !36
  br label %75, !llvm.loop !157

128:                                              ; preds = %75
  br label %129

129:                                              ; preds = %128
  %130 = load i32, ptr %8, align 4, !tbaa !36
  %131 = add nsw i32 %130, 8
  store i32 %131, ptr %8, align 4, !tbaa !36
  br label %71, !llvm.loop !158

132:                                              ; preds = %71
  store i32 0, ptr %8, align 4, !tbaa !36
  br label %133

133:                                              ; preds = %153, %132
  %134 = load i32, ptr %8, align 4, !tbaa !36
  %135 = icmp slt i32 %134, 4096
  br i1 %135, label %136, label %156

136:                                              ; preds = %133
  %137 = load i32, ptr %9, align 4, !tbaa !36
  %138 = mul nsw i32 256, %137
  %139 = sdiv i32 %138, 4096
  %140 = trunc i32 %139 to i8
  %141 = load ptr, ptr %4, align 8, !tbaa !55
  %142 = getelementptr inbounds nuw %struct.AVFrame, ptr %141, i32 0, i32 0
  %143 = getelementptr inbounds [8 x ptr], ptr %142, i64 0, i64 2
  %144 = load ptr, ptr %143, align 8, !tbaa !35
  %145 = load i32, ptr %9, align 4, !tbaa !36
  %146 = sext i32 %145 to i64
  %147 = load i64, ptr %6, align 8, !tbaa !85
  %148 = mul nsw i64 %146, %147
  %149 = load i32, ptr %8, align 4, !tbaa !36
  %150 = sext i32 %149 to i64
  %151 = add nsw i64 %148, %150
  %152 = getelementptr inbounds i8, ptr %144, i64 %151
  store i8 %140, ptr %152, align 1, !tbaa !97
  br label %153

153:                                              ; preds = %136
  %154 = load i32, ptr %8, align 4, !tbaa !36
  %155 = add nsw i32 %154, 1
  store i32 %155, ptr %8, align 4, !tbaa !36
  br label %133, !llvm.loop !159

156:                                              ; preds = %133
  br label %157

157:                                              ; preds = %156
  %158 = load i32, ptr %9, align 4, !tbaa !36
  %159 = add nsw i32 %158, 1
  store i32 %159, ptr %9, align 4, !tbaa !36
  br label %26, !llvm.loop !160

160:                                              ; preds = %26
  call void @llvm.lifetime.end.p0(i64 4, ptr %10) #15
  call void @llvm.lifetime.end.p0(i64 4, ptr %9) #15
  call void @llvm.lifetime.end.p0(i64 4, ptr %8) #15
  call void @llvm.lifetime.end.p0(i64 8, ptr %7) #15
  call void @llvm.lifetime.end.p0(i64 8, ptr %6) #15
  call void @llvm.lifetime.end.p0(i64 8, ptr %5) #15
  ret void
}