; Function Attrs: nofree norecurse nosync nounwind memory(write, argmem: readwrite, inaccessiblemem: none) uwtable
define internal void @allyuv_fill_picture(ptr readnone captures(none) %0, ptr noundef readonly captures(none) %1) #15 {
  %3 = getelementptr inbounds nuw i8, ptr %1, i64 64
  %4 = load i32, ptr %3, align 8, !tbaa !70
  %5 = sext i32 %4 to i64
  %6 = getelementptr inbounds nuw i8, ptr %1, i64 68
  %7 = load i32, ptr %6, align 4, !tbaa !70
  %8 = sext i32 %7 to i64
  %9 = getelementptr inbounds nuw i8, ptr %1, i64 72
  %10 = load i32, ptr %9, align 8, !tbaa !70
  %11 = sext i32 %10 to i64
  %12 = getelementptr inbounds nuw i8, ptr %1, i64 8
  %13 = getelementptr inbounds nuw i8, ptr %1, i64 16
  br label %.preheader48

.preheader48:                                     ; preds = %2, %49
  %indvars.iv66 = phi i64 [ 0, %2 ], [ %indvars.iv.next67, %49 ]
  %14 = mul nsw i64 %indvars.iv66, %5
  %15 = add nsw i64 %14, 4095
  br label %18

.preheader47:                                     ; preds = %18
  %16 = and i64 %indvars.iv66, 15
  %17 = mul nsw i64 %indvars.iv66, %11
  %.neg44 = add nsw i64 %17, 4095
  br label %.preheader

18:                                               ; preds = %.preheader48, %18
  %indvars.iv = phi i64 [ 0, %.preheader48 ], [ %indvars.iv.next, %18 ]
  %19 = lshr i64 %indvars.iv, 3
  %20 = trunc i64 %19 to i8
  %21 = load ptr, ptr %1, align 8, !tbaa !69
  %22 = getelementptr i8, ptr %21, i64 %14
  %23 = getelementptr i8, ptr %22, i64 %indvars.iv
  store i8 %20, ptr %23, align 1, !tbaa !76
  %24 = load ptr, ptr %1, align 8, !tbaa !69
  %25 = sub nsw i64 %15, %indvars.iv
  %26 = getelementptr inbounds i8, ptr %24, i64 %25
  store i8 %20, ptr %26, align 1, !tbaa !76
  %indvars.iv.next = add nuw nsw i64 %indvars.iv, 1
  %exitcond.not = icmp eq i64 %indvars.iv.next, 2048
  br i1 %exitcond.not, label %.preheader47, label %18, !llvm.loop !126

.preheader46:                                     ; preds = %43
  %27 = lshr i64 %indvars.iv66, 4
  %28 = trunc i64 %27 to i8
  %29 = mul nsw i64 %indvars.iv66, %8
  br label %45

.preheader:                                       ; preds = %.preheader47, %43
  %indvars.iv59 = phi i64 [ 0, %.preheader47 ], [ %indvars.iv.next60, %43 ]
  br label %30

30:                                               ; preds = %.preheader, %30
  %indvars.iv55 = phi i64 [ 0, %.preheader ], [ %indvars.iv.next56, %30 ]
  %31 = shl nuw nsw i64 %indvars.iv55, 4
  %32 = or disjoint i64 %31, %16
  %33 = trunc i64 %32 to i8
  %34 = load ptr, ptr %12, align 8, !tbaa !69
  %35 = getelementptr i8, ptr %34, i64 %17
  %36 = getelementptr i8, ptr %35, i64 %indvars.iv59
  %37 = getelementptr i8, ptr %36, i64 %indvars.iv55
  store i8 %33, ptr %37, align 1, !tbaa !76
  %38 = or disjoint i8 %33, -128
  %39 = load ptr, ptr %12, align 8, !tbaa !69
  %40 = add nuw nsw i64 %indvars.iv59, %indvars.iv55
  %41 = sub nsw i64 %.neg44, %40
  %42 = getelementptr inbounds i8, ptr %39, i64 %41
  store i8 %38, ptr %42, align 1, !tbaa !76
  %indvars.iv.next56 = add nuw nsw i64 %indvars.iv55, 1
  %exitcond58.not = icmp eq i64 %indvars.iv.next56, 8
  br i1 %exitcond58.not, label %43, label %30, !llvm.loop !127

43:                                               ; preds = %30
  %indvars.iv.next60 = add nuw nsw i64 %indvars.iv59, 8
  %44 = icmp samesign ult i64 %indvars.iv59, 2040
  br i1 %44, label %.preheader, label %.preheader46, !llvm.loop !128

45:                                               ; preds = %.preheader46, %45
  %indvars.iv62 = phi i64 [ 0, %.preheader46 ], [ %indvars.iv.next63, %45 ]
  %46 = load ptr, ptr %13, align 8, !tbaa !69
  %47 = getelementptr i8, ptr %46, i64 %29
  %48 = getelementptr i8, ptr %47, i64 %indvars.iv62
  store i8 %28, ptr %48, align 1, !tbaa !76
  %indvars.iv.next63 = add nuw nsw i64 %indvars.iv62, 1
  %exitcond65.not = icmp eq i64 %indvars.iv.next63, 4096
  br i1 %exitcond65.not, label %49, label %45, !llvm.loop !129

49:                                               ; preds = %45
  %indvars.iv.next67 = add nuw nsw i64 %indvars.iv66, 1
  %exitcond69.not = icmp eq i64 %indvars.iv.next67, 4096
  br i1 %exitcond69.not, label %50, label %.preheader48, !llvm.loop !130

50:                                               ; preds = %49
  ret void
}